; Function Attrs: inlinehint mustprogress nounwind uwtable
define internal fastcc void @_ZN7testing8internal13ParamIteratorIN11opencv_test12_GLOBAL__N_18CvtMode2EED2Ev(ptr noundef nonnull align 8 captures(none) dereferenceable(8) %0) unnamed_addr #9 align 2 personality ptr @__gxx_personality_v0 {
  %2 = load ptr, ptr %0, align 8, !tbaa !758
  %.not.i.i = icmp eq ptr %2, null
  br i1 %.not.i.i, label %_ZN7testing8internal10scoped_ptrINS0_22ParamIteratorInterfaceIN11opencv_test12_GLOBAL__N_18CvtMode2EEEED2Ev.exit, label %3

3:                                                ; preds = %1
  %4 = invoke noundef zeroext i1 @_ZN7testing8internal6IsTrueEb(i1 noundef zeroext true)
          to label %.noexc.i unwind label %13

.noexc.i:                                         ; preds = %3
  br i1 %4, label %5, label %12

5:                                                ; preds = %.noexc.i
  %6 = load ptr, ptr %0, align 8, !tbaa !758
  %7 = icmp eq ptr %6, null
  br i1 %7, label %12, label %8

8:                                                ; preds = %5
  %9 = load ptr, ptr %6, align 8, !tbaa !19
  %10 = getelementptr inbounds nuw i8, ptr %9, i64 8
  %11 = load ptr, ptr %10, align 8
  tail call void %11(ptr noundef nonnull align 8 dereferenceable(8) %6) #30
  br label %12

12:                                               ; preds = %8, %5, %.noexc.i
  store ptr null, ptr %0, align 8, !tbaa !758
  br label %_ZN7testing8internal10scoped_ptrINS0_22ParamIteratorInterfaceIN11opencv_test12_GLOBAL__N_18CvtMode2EEEED2Ev.exit

13:                                               ; preds = %3
  %14 = landingpad { ptr, i32 }
          catch ptr null
  %15 = extractvalue { ptr, i32 } %14, 0
  tail call void @__clang_call_terminate(ptr %15) #32
  unreachable

_ZN7testing8internal10scoped_ptrINS0_22ParamIteratorInterfaceIN11opencv_test12_GLOBAL__N_18CvtMode2EEEED2Ev.exit: ; preds = %1, %12
  ret void
}